c__builtin__
set
p0
((lp1
(S'314684'
p2
S'449151'
p3
tp4
a(S'116738'
p5
S'153430'
p6
tp7
a(S'153430'
p8
S'220488'
p9
tp10
a(S'181750'
p11
S'302129'
p12
tp13
a(S'030936'
p14
S'291515'
p15
tp16
a(S'120177'
p17
S'220488'
p18
tp19
a(S'331890'
p20
S'415618'
p21
tp22
a(S'124837'
p23
S'215887'
p24
tp25
a(S'116738'
p26
S'298107'
p27
tp28
a(S'116738'
p29
S'331890'
p30
tp31
a(S'030936'
p32
S'331152'
p33
tp34
a(S'111280'
p35
S'124837'
p36
tp37
a(S'361354'
p38
S'449151'
p39
tp40
a(S'315177'
p41
S'331152'
p42
tp43
a(S'098535'
p44
S'315177'
p45
tp46
a(S'181750'
p47
S'200146'
p48
tp49
a(S'302129'
p50
S'307633'
p51
tp52
a(S'121747'
p53
S'314684'
p54
tp55
a(S'215887'
p56
S'331890'
p57
tp58
a(S'121747'
p59
S'258133'
p60
tp61
a(S'200779'
p62
S'215615'
p63
tp64
a(S'046399'
p65
S'266779'
p66
tp67
a(S'034572'
p68
S'051528'
p69
tp70
a(S'231037'
p71
S'331152'
p72
tp73
a(S'042941'
p74
S'324418'
p75
tp76
a(S'120177'
p77
S'314055'
p78
tp79
a(S'086997'
p80
S'314684'
p81
tp82
a(S'030936'
p83
S'461330'
p84
tp85
a(S'314684'
p86
S'461330'
p87
tp88
a(S'248597'
p89
S'427260'
p90
tp91
a(S'120177'
p92
S'302129'
p93
tp94
a(S'041758'
p95
S'258133'
p96
tp97
a(S'258133'
p98
S'427260'
p99
tp100
a(S'266779'
p101
S'427260'
p102
tp103
a(S'153430'
p104
S'302129'
p105
tp106
a(S'120177'
p107
S'361354'
p108
tp109
a(S'215615'
p110
S'244522'
p111
tp112
a(S'220488'
p113
S'314684'
p114
tp115
a(S'153430'
p116
S'206300'
p117
tp118
a(S'041758'
p119
S'041912'
p120
tp121
a(S'153430'
p122
S'431243'
p123
tp124
a(S'034572'
p125
S'244522'
p126
tp127
a(S'200230'
p128
S'234825'
p129
tp130
a(S'041758'
p131
S'042941'
p132
tp133
a(S'124837'
p134
S'307633'
p135
tp136
a(S'331152'
p137
S'361354'
p138
tp139
a(S'116738'
p140
S'200779'
p141
tp142
a(S'098535'
p143
S'228374'
p144
tp145
a(S'240364'
p146
S'258133'
p147
tp148
a(S'120177'
p149
S'181750'
p150
tp151
a(S'331890'
p152
S'461330'
p153
tp154
a(S'181750'
p155
S'361354'
p156
tp157
a(S'220488'
p158
S'291515'
p159
tp160
a(S'121747'
p161
S'206300'
p162
tp163
a(S'041758'
p164
S'298107'
p165
tp166
a(S'181750'
p167
S'200230'
p168
tp169
a(S'120177'
p170
S'413183'
p171
tp172
a(S'120177'
p173
S'164407'
p174
tp175
a(S'266779'
p176
S'291515'
p177
tp178
a(S'415618'
p179
S'427260'
p180
tp181
a(S'153430'
p182
S'413183'
p183
tp184
a(S'124837'
p185
S'324418'
p186
tp187
a(S'086997'
p188
S'461330'
p189
tp190
a(S'181750'
p191
S'449151'
p192
tp193
a(S'244522'
p194
S'427260'
p195
tp196
a(S'324418'
p197
S'427260'
p198
tp199
a(S'307633'
p200
S'443192'
p201
tp202
a(S'116738'
p203
S'443192'
p204
tp205
a(S'234825'
p206
S'461330'
p207
tp208
a(S'215887'
p209
S'331152'
p210
tp211
a(S'051528'
p212
S'111280'
p213
tp214
a(S'043875'
p215
S'248597'
p216
tp217
a(S'298107'
p218
S'415618'
p219
tp220
a(S'098535'
p221
S'461330'
p222
tp223
a(S'121747'
p224
S'361354'
p225
tp226
a(S'041758'
p227
S'240364'
p228
tp229
a(S'051528'
p230
S'266779'
p231
tp232
a(S'231037'
p233
S'298107'
p234
tp235
a(S'111280'
p236
S'153430'
p237
tp238
a(S'034572'
p239
S'121747'
p240
tp241
a(S'030936'
p242
S'098535'
p243
tp244
a(S'124837'
p245
S'431243'
p246
tp247
a(S'098535'
p248
S'314055'
p249
tp250
a(S'051528'
p251
S'231037'
p252
tp253
a(S'030936'
p254
S'411000'
p255
tp256
a(S'215615'
p257
S'248597'
p258
tp259
a(S'046399'
p260
S'051528'
p261
tp262
a(S'361354'
p263
S'431243'
p264
tp265
a(S'120177'
p266
S'215887'
p267
tp268
a(S'043875'
p269
S'240364'
p270
tp271
a(S'116738'
p272
S'200146'
p273
tp274
a(S'042941'
p275
S'046399'
p276
tp277
a(S'302129'
p278
S'314684'
p279
tp280
a(S'200146'
p281
S'331152'
p282
tp283
a(S'030936'
p284
S'315177'
p285
tp286
a(S'041912'
p287
S'298107'
p288
tp289
a(S'153430'
p290
S'314055'
p291
tp292
a(S'215615'
p293
S'331152'
p294
tp295
a(S'121747'
p296
S'220488'
p297
tp298
a(S'111280'
p299
S'206300'
p300
tp301
a(S'314684'
p302
S'331152'
p303
tp304
a(S'315177'
p305
S'331890'
p306
tp307
a(S'120177'
p308
S'431243'
p309
tp310
a(S'098535'
p311
S'443192'
p312
tp313
a(S'034572'
p314
S'331152'
p315
tp316
a(S'200230'
p317
S'307633'
p318
tp319
a(S'098535'
p320
S'413183'
p321
tp322
a(S'200146'
p323
S'461330'
p324
tp325
a(S'234825'
p326
S'314055'
p327
tp328
a(S'086997'
p329
S'111280'
p330
tp331
a(S'228374'
p332
S'314055'
p333
tp334
a(S'411000'
p335
S'415618'
p336
tp337
a(S'215615'
p338
S'324418'
p339
tp340
a(S'220488'
p341
S'413183'
p342
tp343
a(S'111280'
p344
S'431243'
p345
tp346
a(S'116738'
p347
S'234825'
p348
tp349
a(S'153430'
p350
S'307633'
p351
tp352
a(S'206300'
p353
S'234825'
p354
tp355
a(S'086997'
p356
S'098535'
p357
tp358
a(S'314055'
p359
S'413183'
p360
tp361
a(S'098535'
p362
S'331152'
p363
tp364
a(S'206300'
p365
S'331152'
p366
tp367
a(S'116738'
p368
S'215615'
p369
tp370
a(S'361354'
p371
S'461330'
p372
tp373
a(S'120177'
p374
S'124837'
p375
tp376
a(S'206300'
p377
S'215887'
p378
tp379
a(S'121747'
p380
S'228374'
p381
tp382
a(S'116738'
p383
S'240364'
p384
tp385
a(S'030936'
p386
S'051528'
p387
tp388
a(S'200146'
p389
S'331890'
p390
tp391
a(S'121747'
p392
S'181750'
p393
tp394
a(S'228374'
p395
S'413183'
p396
tp397
a(S'030936'
p398
S'116738'
p399
tp400
a(S'200146'
p401
S'361354'
p402
tp403
a(S'124837'
p404
S'331152'
p405
tp406
a(S'220488'
p407
S'314055'
p408
tp409
a(S'200230'
p410
S'231037'
p411
tp412
a(S'041912'
p413
S'258133'
p414
tp415
a(S'034572'
p416
S'215615'
p417
tp418
a(S'034572'
p419
S'298107'
p420
tp421
a(S'200146'
p422
S'431243'
p423
tp424
a(S'046399'
p425
S'324418'
p426
tp427
a(S'181750'
p428
S'314684'
p429
tp430
a(S'315177'
p431
S'449151'
p432
tp433
a(S'111280'
p434
S'461330'
p435
tp436
a(S'041912'
p437
S'266779'
p438
tp439
a(S'051528'
p440
S'427260'
p441
tp442
a(S'234825'
p443
S'427260'
p444
tp445
a(S'215615'
p446
S'240364'
p447
tp448
a(S'206300'
p449
S'443192'
p450
tp451
a(S'116738'
p452
S'215887'
p453
tp454
a(S'034572'
p455
S'116738'
p456
tp457
a(S'120177'
p458
S'331152'
p459
tp460
a(S'041758'
p461
S'043875'
p462
tp463
a(S'121747'
p464
S'215887'
p465
tp466
a(S'314055'
p467
S'443192'
p468
tp469
a(S'111280'
p470
S'215615'
p471
tp472
a(S'215615'
p473
S'215887'
p474
tp475
a(S'043875'
p476
S'244522'
p477
tp478
a(S'206300'
p479
S'307633'
p480
tp481
a(S'042941'
p482
S'427260'
p483
tp484
a(S'041912'
p485
S'051528'
p486
tp487
a(S'206300'
p488
S'361354'
p489
tp490
a(S'030936'
p491
S'124837'
p492
tp493
a(S'215615'
p494
S'331890'
p495
tp496
a(S'124837'
p497
S'234825'
p498
tp499
a(S'111280'
p500
S'331152'
p501
tp502
a(S'248597'
p503
S'324418'
p504
tp505
a(S'034572'
p506
S'461330'
p507
tp508
a(S'098535'
p509
S'314684'
p510
tp511
a(S'228374'
p512
S'331152'
p513
tp514
a(S'258133'
p515
S'298107'
p516
tp517
a(S'206300'
p518
S'431243'
p519
tp520
a(S'116738'
p521
S'431243'
p522
tp523
a(S'098535'
p524
S'121747'
p525
tp526
a(S'181750'
p527
S'431243'
p528
tp529
a(S'124837'
p530
S'331890'
p531
tp532
a(S'200146'
p533
S'200230'
p534
tp535
a(S'051528'
p536
S'244522'
p537
tp538
a(S'200230'
p539
S'215887'
p540
tp541
a(S'200230'
p542
S'324418'
p543
tp544
a(S'116738'
p545
S'415618'
p546
tp547
a(S'302129'
p548
S'443192'
p549
tp550
a(S'200779'
p551
S'307633'
p552
tp553
a(S'244522'
p554
S'248597'
p555
tp556
a(S'200146'
p557
S'302129'
p558
tp559
a(S'043875'
p560
S'258133'
p561
tp562
a(S'116738'
p563
S'206300'
p564
tp565
a(S'240364'
p566
S'411000'
p567
tp568
a(S'244522'
p569
S'324418'
p570
tp571
a(S'231037'
p572
S'234825'
p573
tp574
a(S'200230'
p575
S'449151'
p576
tp577
a(S'153430'
p578
S'234825'
p579
tp580
a(S'030936'
p581
S'153430'
p582
tp583
a(S'116738'
p584
S'120177'
p585
tp586
a(S'121747'
p587
S'200230'
p588
tp589
a(S'331890'
p590
S'431243'
p591
tp592
a(S'111280'
p593
S'200146'
p594
tp595
a(S'153430'
p596
S'200146'
p597
tp598
a(S'215887'
p599
S'244522'
p600
tp601
a(S'034572'
p602
S'415618'
p603
tp604
a(S'042941'
p605
S'266779'
p606
tp607
a(S'120177'
p608
S'121747'
p609
tp610
a(S'413183'
p611
S'427260'
p612
tp613
a(S'111280'
p614
S'258133'
p615
tp616
a(S'051528'
p617
S'411000'
p618
tp619
a(S'164407'
p620
S'315177'
p621
tp622
a(S'164407'
p623
S'415618'
p624
tp625
a(S'041758'
p626
S'324418'
p627
tp628
a(S'111280'
p629
S'331890'
p630
tp631
a(S'302129'
p632
S'461330'
p633
tp634
a(S'051528'
p635
S'234825'
p636
tp637
a(S'314684'
p638
S'315177'
p639
tp640
a(S'120177'
p641
S'324418'
p642
tp643
a(S'206300'
p644
S'302129'
p645
tp646
a(S'298107'
p647
S'413183'
p648
tp649
a(S'098535'
p650
S'153430'
p651
tp652
a(S'086997'
p653
S'164407'
p654
tp655
a(S'215887'
p656
S'240364'
p657
tp658
a(S'200146'
p659
S'215615'
p660
tp661
a(S'234825'
p662
S'411000'
p663
tp664
a(S'086997'
p665
S'314055'
p666
tp667
a(S'200230'
p668
S'361354'
p669
tp670
a(S'124837'
p671
S'200146'
p672
tp673
a(S'164407'
p674
S'220488'
p675
tp676
a(S'041758'
p677
S'411000'
p678
tp679
a(S'331152'
p680
S'449151'
p681
tp682
a(S'215887'
p683
S'231037'
p684
tp685
a(S'331890'
p686
S'361354'
p687
tp688
a(S'124837'
p689
S'258133'
p690
tp691
a(S'248597'
p692
S'291515'
p693
tp694
a(S'314055'
p695
S'449151'
p696
tp697
a(S'034572'
p698
S'291515'
p699
tp700
a(S'220488'
p701
S'234825'
p702
tp703
a(S'307633'
p704
S'331152'
p705
tp706
a(S'116738'
p707
S'413183'
p708
tp709
a(S'153430'
p710
S'331152'
p711
tp712
a(S'315177'
p713
S'361354'
p714
tp715
a(S'121747'
p716
S'231037'
p717
tp718
a(S'164407'
p719
S'461330'
p720
tp721
a(S'181750'
p722
S'331890'
p723
tp724
a(S'030936'
p725
S'314684'
p726
tp727
a(S'231037'
p728
S'427260'
p729
tp730
a(S'120177'
p731
S'461330'
p732
tp733
a(S'124837'
p734
S'244522'
p735
tp736
a(S'200146'
p737
S'244522'
p738
tp739
a(S'086997'
p740
S'413183'
p741
tp742
a(S'220488'
p743
S'415618'
p744
tp745
a(S'034572'
p746
S'111280'
p747
tp748
a(S'331890'
p749
S'443192'
p750
tp751
a(S'181750'
p752
S'200779'
p753
tp754
a(S'121747'
p755
S'302129'
p756
tp757
a(S'111280'
p758
S'228374'
p759
tp760
a(S'200146'
p761
S'307633'
p762
tp763
a(S'291515'
p764
S'413183'
p765
tp766
a(S'041758'
p767
S'046399'
p768
tp769
a(S'413183'
p770
S'415618'
p771
tp772
a(S'200230'
p773
S'443192'
p774
tp775
a(S'181750'
p776
S'443192'
p777
tp778
a(S'034572'
p779
S'411000'
p780
tp781
a(S'041758'
p782
S'427260'
p783
tp784
a(S'034572'
p785
S'234825'
p786
tp787
a(S'331890'
p788
S'449151'
p789
tp790
a(S'431243'
p791
S'443192'
p792
tp793
a(S'034572'
p794
S'324418'
p795
tp796
a(S'051528'
p797
S'248597'
p798
tp799
a(S'034572'
p800
S'200230'
p801
tp802
a(S'181750'
p803
S'206300'
p804
tp805
a(S'051528'
p806
S'215887'
p807
tp808
a(S'431243'
p809
S'449151'
p810
tp811
a(S'302129'
p812
S'449151'
p813
tp814
a(S'234825'
p815
S'244522'
p816
tp817
a(S'120177'
p818
S'200779'
p819
tp820
a(S'215615'
p821
S'258133'
p822
tp823
a(S'051528'
p824
S'258133'
p825
tp826
a(S'051528'
p827
S'240364'
p828
tp829
a(S'116738'
p830
S'244522'
p831
tp832
a(S'041758'
p833
S'291515'
p834
tp835
a(S'034572'
p836
S'228374'
p837
tp838
a(S'121747'
p839
S'411000'
p840
tp841
a(S'153430'
p842
S'443192'
p843
tp844
a(S'449151'
p845
S'461330'
p846
tp847
a(S'030936'
p848
S'164407'
p849
tp850
a(S'030936'
p851
S'413183'
p852
tp853
a(S'116738'
p854
S'324418'
p855
tp856
a(S'111280'
p857
S'200230'
p858
tp859
a(S'051528'
p860
S'413183'
p861
tp862
a(S'030936'
p863
S'331890'
p864
tp865
a(S'030936'
p866
S'231037'
p867
tp868
a(S'200230'
p869
S'206300'
p870
tp871
a(S'042941'
p872
S'051528'
p873
tp874
a(S'041912'
p875
S'240364'
p876
tp877
a(S'051528'
p878
S'291515'
p879
tp880
a(S'030936'
p881
S'120177'
p882
tp883
a(S'307633'
p884
S'315177'
p885
tp886
a(S'231037'
p887
S'240364'
p888
tp889
a(S'086997'
p890
S'153430'
p891
tp892
a(S'124837'
p893
S'231037'
p894
tp895
a(S'228374'
p896
S'331890'
p897
tp898
a(S'041912'
p899
S'042941'
p900
tp901
a(S'215887'
p902
S'258133'
p903
tp904
a(S'121747'
p905
S'331890'
p906
tp907
a(S'153430'
p908
S'164407'
p909
tp910
a(S'111280'
p911
S'164407'
p912
tp913
a(S'302129'
p914
S'361354'
p915
tp916
a(S'200230'
p917
S'200779'
p918
tp919
a(S'111280'
p920
S'314055'
p921
tp922
a(S'046399'
p923
S'244522'
p924
tp925
a(S'153430'
p926
S'231037'
p927
tp928
a(S'086997'
p929
S'415618'
p930
tp931
a(S'220488'
p932
S'298107'
p933
tp934
a(S'248597'
p935
S'411000'
p936
tp937
a(S'111280'
p938
S'121747'
p939
tp940
a(S'030936'
p941
S'314055'
p942
tp943
a(S'206300'
p944
S'215615'
p945
tp946
a(S'234825'
p947
S'298107'
p948
tp949
a(S'046399'
p950
S'258133'
p951
tp952
a(S'266779'
p953
S'298107'
p954
tp955
a(S'200779'
p956
S'331152'
p957
tp958
a(S'228374'
p959
S'461330'
p960
tp961
a(S'248597'
p962
S'298107'
p963
tp964
a(S'124837'
p965
S'200230'
p966
tp967
a(S'234825'
p968
S'240364'
p969
tp970
a(S'258133'
p971
S'291515'
p972
tp973
a(S'041912'
p974
S'244522'
p975
tp976
a(S'043875'
p977
S'046399'
p978
tp979
a(S'124837'
p980
S'153430'
p981
tp982
a(S'124837'
p983
S'200779'
p984
tp985
a(S'121747'
p986
S'124837'
p987
tp988
a(S'051528'
p989
S'298107'
p990
tp991
a(S'307633'
p992
S'449151'
p993
tp994
a(S'302129'
p995
S'331890'
p996
tp997
a(S'231037'
p998
S'413183'
p999
tp1000
a(S'111280'
p1001
S'120177'
p1002
tp1003
a(S'206300'
p1004
S'331890'
p1005
tp1006
a(S'228374'
p1007
S'315177'
p1008
tp1009
a(S'411000'
p1010
S'427260'
p1011
tp1012
a(S'098535'
p1013
S'331890'
p1014
tp1015
a(S'086997'
p1016
S'234825'
p1017
tp1018
a(S'111280'
p1019
S'231037'
p1020
tp1021
a(S'042941'
p1022
S'298107'
p1023
tp1024
a(S'181750'
p1025
S'307633'
p1026
tp1027
a(S'111280'
p1028
S'413183'
p1029
tp1030
a(S'200779'
p1031
S'231037'
p1032
tp1033
a(S'153430'
p1034
S'361354'
p1035
tp1036
a(S'231037'
p1037
S'258133'
p1038
tp1039
a(S'248597'
p1040
S'258133'
p1041
tp1042
a(S'291515'
p1043
S'427260'
p1044
tp1045
a(S'240364'
p1046
S'427260'
p1047
tp1048
a(S'291515'
p1049
S'298107'
p1050
tp1051
a(S'051528'
p1052
S'116738'
p1053
tp1054
a(S'086997'
p1055
S'228374'
p1056
tp1057
a(S'042941'
p1058
S'240364'
p1059
tp1060
a(S'200230'
p1061
S'461330'
p1062
tp1063
a(S'302129'
p1064
S'431243'
p1065
tp1066
a(S'220488'
p1067
S'461330'
p1068
tp1069
a(S'034572'
p1070
S'413183'
p1071
tp1072
a(S'046399'
p1073
S'248597'
p1074
tp1075
a(S'030936'
p1076
S'111280'
p1077
tp1078
a(S'200779'
p1079
S'206300'
p1080
tp1081
a(S'124837'
p1082
S'215615'
p1083
tp1084
a(S'220488'
p1085
S'331890'
p1086
tp1087
a(S'041912'
p1088
S'043875'
p1089
tp1090
a(S'034572'
p1091
S'120177'
p1092
tp1093
a(S'234825'
p1094
S'324418'
p1095
tp1096
a(S'043875'
p1097
S'324418'
p1098
tp1099
a(S'124837'
p1100
S'449151'
p1101
tp1102
a(S'411000'
p1103
S'413183'
p1104
tp1105
a(S'200779'
p1106
S'331890'
p1107
tp1108
a(S'220488'
p1109
S'315177'
p1110
tp1111
a(S'153430'
p1112
S'200779'
p1113
tp1114
a(S'124837'
p1115
S'302129'
p1116
tp1117
a(S'030936'
p1118
S'228374'
p1119
tp1120
a(S'121747'
p1121
S'153430'
p1122
tp1123
a(S'244522'
p1124
S'258133'
p1125
tp1126
a(S'121747'
p1127
S'200779'
p1128
tp1129
a(S'443192'
p1130
S'449151'
p1131
tp1132
a(S'034572'
p1133
S'086997'
p1134
tp1135
a(S'153430'
p1136
S'449151'
p1137
tp1138
a(S'220488'
p1139
S'411000'
p1140
tp1141
a(S'215887'
p1142
S'234825'
p1143
tp1144
a(S'042941'
p1145
S'291515'
p1146
tp1147
a(S'046399'
p1148
S'291515'
p1149
tp1150
a(S'206300'
p1151
S'461330'
p1152
tp1153
a(S'120177'
p1154
S'206300'
p1155
tp1156
a(S'200779'
p1157
S'258133'
p1158
tp1159
a(S'200146'
p1160
S'206300'
p1161
tp1162
a(S'034572'
p1163
S'314055'
p1164
tp1165
a(S'116738'
p1166
S'231037'
p1167
tp1168
a(S'041912'
p1169
S'291515'
p1170
tp1171
a(S'307633'
p1172
S'314684'
p1173
tp1174
a(S'181750'
p1175
S'331152'
p1176
tp1177
a(S'116738'
p1178
S'200230'
p1179
tp1180
a(S'034572'
p1181
S'164407'
p1182
tp1183
a(S'244522'
p1184
S'266779'
p1185
tp1186
a(S'111280'
p1187
S'324418'
p1188
tp1189
a(S'034572'
p1190
S'220488'
p1191
tp1192
a(S'215615'
p1193
S'231037'
p1194
tp1195
a(S'120177'
p1196
S'314684'
p1197
tp1198
a(S'153430'
p1199
S'314684'
p1200
tp1201
a(S'120177'
p1202
S'258133'
p1203
tp1204
a(S'041758'
p1205
S'266779'
p1206
tp1207
a(S'111280'
p1208
S'411000'
p1209
tp1210
a(S'098535'
p1211
S'415618'
p1212
tp1213
a(S'086997'
p1214
S'331152'
p1215
tp1216
a(S'111280'
p1217
S'220488'
p1218
tp1219
a(S'234825'
p1220
S'331152'
p1221
tp1222
a(S'042941'
p1223
S'248597'
p1224
tp1225
a(S'086997'
p1226
S'121747'
p1227
tp1228
a(S'153430'
p1229
S'228374'
p1230
tp1231
a(S'124837'
p1232
S'461330'
p1233
tp1234
a(S'034572'
p1235
S'124837'
p1236
tp1237
a(S'116738'
p1238
S'220488'
p1239
tp1240
a(S'043875'
p1241
S'427260'
p1242
tp1243
a(S'302129'
p1244
S'331152'
p1245
tp1246
a(S'240364'
p1247
S'266779'
p1248
tp1249
a(S'098535'
p1250
S'120177'
p1251
tp1252
a(S'200230'
p1253
S'215615'
p1254
tp1255
a(S'248597'
p1256
S'266779'
p1257
tp1258
a(S'200230'
p1259
S'331890'
p1260
tp1261
a(S'116738'
p1262
S'228374'
p1263
tp1264
a(S'164407'
p1265
S'413183'
p1266
tp1267
a(S'124837'
p1268
S'206300'
p1269
tp1270
a(S'200779'
p1271
S'461330'
p1272
tp1273
a(S'041758'
p1274
S'248597'
p1275
tp1276
a(S'041912'
p1277
S'248597'
p1278
tp1279
a(S'231037'
p1280
S'331890'
p1281
tp1282
a(S'111280'
p1283
S'234825'
p1284
tp1285
a(S'121747'
p1286
S'234825'
p1287
tp1288
a(S'030936'
p1289
S'215887'
p1290
tp1291
a(S'121747'
p1292
S'324418'
p1293
tp1294
a(S'030936'
p1295
S'258133'
p1296
tp1297
a(S'314055'
p1298
S'331890'
p1299
tp1300
a(S'215615'
p1301
S'234825'
p1302
tp1303
a(S'030936'
p1304
S'234825'
p1305
tp1306
a(S'200230'
p1307
S'302129'
p1308
tp1309
a(S'228374'
p1310
S'298107'
p1311
tp1312
a(S'298107'
p1313
S'427260'
p1314
tp1315
a(S'111280'
p1316
S'361354'
p1317
tp1318
a(S'121747'
p1319
S'215615'
p1320
tp1321
a(S'258133'
p1322
S'411000'
p1323
tp1324
a(S'042941'
p1325
S'258133'
p1326
tp1327
a(S'098535'
p1328
S'164407'
p1329
tp1330
a(S'124837'
p1331
S'443192'
p1332
tp1333
a(S'206300'
p1334
S'324418'
p1335
tp1336
a(S'153430'
p1337
S'315177'
p1338
tp1339
a(S'153430'
p1340
S'415618'
p1341
tp1342
a(S'034572'
p1343
S'315177'
p1344
tp1345
a(S'116738'
p1346
S'461330'
p1347
tp1348
a(S'200779'
p1349
S'431243'
p1350
tp1351
a(S'121747'
p1352
S'449151'
p1353
tp1354
a(S'046399'
p1355
S'411000'
p1356
tp1357
a(S'164407'
p1358
S'314055'
p1359
tp1360
a(S'431243'
p1361
S'461330'
p1362
tp1363
a(S'228374'
p1364
S'449151'
p1365
tp1366
a(S'034572'
p1367
S'098535'
p1368
tp1369
a(S'266779'
p1370
S'411000'
p1371
tp1372
a(S'043875'
p1373
S'266779'
p1374
tp1375
a(S'030936'
p1376
S'220488'
p1377
tp1378
a(S'331152'
p1379
S'443192'
p1380
tp1381
a(S'034572'
p1382
S'258133'
p1383
tp1384
a(S'240364'
p1385
S'324418'
p1386
tp1387
a(S'234825'
p1388
S'248597'
p1389
tp1390
a(S'331152'
p1391
S'331890'
p1392
tp1393
a(S'266779'
p1394
S'324418'
p1395
tp1396
a(S'314055'
p1397
S'461330'
p1398
tp1399
a(S'120177'
p1400
S'231037'
p1401
tp1402
a(S'041758'
p1403
S'244522'
p1404
tp1405
a(S'120177'
p1406
S'443192'
p1407
tp1408
a(S'042941'
p1409
S'411000'
p1410
tp1411
a(S'111280'
p1412
S'240364'
p1413
tp1414
a(S'086997'
p1415
S'315177'
p1416
tp1417
a(S'051528'
p1418
S'324418'
p1419
tp1420
a(S'228374'
p1421
S'314684'
p1422
tp1423
a(S'034572'
p1424
S'153430'
p1425
tp1426
a(S'124837'
p1427
S'361354'
p1428
tp1429
a(S'231037'
p1430
S'291515'
p1431
tp1432
a(S'111280'
p1433
S'443192'
p1434
tp1435
a(S'164407'
p1436
S'291515'
p1437
tp1438
a(S'121747'
p1439
S'431243'
p1440
tp1441
a(S'164407'
p1442
S'449151'
p1443
tp1444
a(S'116738'
p1445
S'258133'
p1446
tp1447
a(S'164407'
p1448
S'331152'
p1449
tp1450
a(S'153430'
p1451
S'411000'
p1452
tp1453
a(S'153430'
p1454
S'461330'
p1455
tp1456
a(S'200779'
p1457
S'361354'
p1458
tp1459
a(S'120177'
p1460
S'315177'
p1461
tp1462
a(S'314055'
p1463
S'331152'
p1464
tp1465
a(S'181750'
p1466
S'461330'
p1467
tp1468
a(S'120177'
p1469
S'153430'
p1470
tp1471
a(S'046399'
p1472
S'427260'
p1473
tp1474
a(S'120177'
p1475
S'200146'
p1476
tp1477
a(S'098535'
p1478
S'449151'
p1479
tp1480
a(S'124837'
p1481
S'181750'
p1482
tp1483
a(S'234825'
p1484
S'413183'
p1485
tp1486
a(S'111280'
p1487
S'298107'
p1488
tp1489
a(S'153430'
p1490
S'200230'
p1491
tp1492
a(S'041912'
p1493
S'046399'
p1494
tp1495
a(S'121747'
p1496
S'307633'
p1497
tp1498
a(S'314055'
p1499
S'314684'
p1500
tp1501
a(S'231037'
p1502
S'415618'
p1503
tp1504
a(S'215887'
p1505
S'324418'
p1506
tp1507
a(S'042941'
p1508
S'043875'
p1509
tp1510
a(S'234825'
p1511
S'258133'
p1512
tp1513
a(S'200230'
p1514
S'431243'
p1515
tp1516
a(S'086997'
p1517
S'220488'
p1518
tp1519
a(S'234825'
p1520
S'331890'
p1521
tp1522
a(S'034572'
p1523
S'231037'
p1524
tp1525
a(S'181750'
p1526
S'315177'
p1527
tp1528
a(S'121747'
p1529
S'443192'
p1530
tp1531
a(S'220488'
p1532
S'449151'
p1533
tp1534
a(S'228374'
p1535
S'291515'
p1536
tp1537
a(S'164407'
p1538
S'411000'
p1539
tp1540
a(S'220488'
p1541
S'331152'
p1542
tp1543
a(S'314684'
p1544
S'361354'
p1545
tp1546
a(S'231037'
p1547
S'248597'
p1548
tp1549
a(S'361354'
p1550
S'443192'
p1551
tp1552
a(S'200146'
p1553
S'215887'
p1554
tp1555
a(S'315177'
p1556
S'415618'
p1557
tp1558
a(S'046399'
p1559
S'298107'
p1560
tp1561
a(S'042941'
p1562
S'244522'
p1563
tp1564
a(S'164407'
p1565
S'228374'
p1566
tp1567
a(S'121747'
p1568
S'415618'
p1569
tp1570
a(S'120177'
p1571
S'411000'
p1572
tp1573
a(S'120177'
p1574
S'228374'
p1575
tp1576
a(S'111280'
p1577
S'116738'
p1578
tp1579
a(S'051528'
p1580
S'415618'
p1581
tp1582
a(S'258133'
p1583
S'266779'
p1584
tp1585
a(S'120177'
p1586
S'234825'
p1587
tp1588
a(S'206300'
p1589
S'231037'
p1590
tp1591
a(S'228374'
p1592
S'415618'
p1593
tp1594
a(S'234825'
p1595
S'415618'
p1596
tp1597
a(S'234825'
p1598
S'291515'
p1599
tp1600
a(S'034572'
p1601
S'331890'
p1602
tp1603
a(S'120177'
p1604
S'215615'
p1605
tp1606
a(S'314684'
p1607
S'331890'
p1608
tp1609
a(S'258133'
p1610
S'324418'
p1611
tp1612
a(S'111280'
p1613
S'200779'
p1614
tp1615
a(S'116738'
p1616
S'124837'
p1617
tp1618
a(S'220488'
p1619
S'228374'
p1620
tp1621
a(S'153430'
p1622
S'331890'
p1623
tp1624
a(S'120177'
p1625
S'331890'
p1626
tp1627
a(S'120177'
p1628
S'449151'
p1629
tp1630
a(S'231037'
p1631
S'324418'
p1632
tp1633
a(S'120177'
p1634
S'415618'
p1635
tp1636
a(S'331152'
p1637
S'431243'
p1638
tp1639
a(S'121747'
p1640
S'331152'
p1641
tp1642
a(S'443192'
p1643
S'461330'
p1644
tp1645
a(S'302129'
p1646
S'315177'
p1647
tp1648
a(S'258133'
p1649
S'415618'
p1650
tp1651
a(S'315177'
p1652
S'461330'
p1653
tp1654
a(S'121747'
p1655
S'314055'
p1656
tp1657
a(S'030936'
p1658
S'121747'
p1659
tp1660
a(S'331152'
p1661
S'461330'
p1662
tp1663
a(S'307633'
p1664
S'331890'
p1665
tp1666
a(S'121747'
p1667
S'315177'
p1668
tp1669
a(S'200146'
p1670
S'324418'
p1671
tp1672
a(S'121747'
p1673
S'164407'
p1674
tp1675
a(S'086997'
p1676
S'449151'
p1677
tp1678
a(S'041912'
p1679
S'324418'
p1680
tp1681
a(S'200146'
p1682
S'200779'
p1683
tp1684
a(S'164407'
p1685
S'314684'
p1686
tp1687
a(S'043875'
p1688
S'051528'
p1689
tp1690
a(S'200230'
p1691
S'331152'
p1692
tp1693
a(S'116738'
p1694
S'121747'
p1695
tp1696
a(S'098535'
p1697
S'234825'
p1698
tp1699
a(S'200779'
p1700
S'302129'
p1701
tp1702
a(S'111280'
p1703
S'415618'
p1704
tp1705
a(S'291515'
p1706
S'415618'
p1707
tp1708
a(S'200779'
p1709
S'244522'
p1710
tp1711
a(S'231037'
p1712
S'411000'
p1713
tp1714
a(S'240364'
p1715
S'248597'
p1716
tp1717
a(S'098535'
p1718
S'220488'
p1719
tp1720
a(S'116738'
p1721
S'331152'
p1722
tp1723
a(S'030936'
p1724
S'298107'
p1725
tp1726
a(S'164407'
p1727
S'234825'
p1728
tp1729
a(S'153430'
p1730
S'181750'
p1731
tp1732
a(S'121747'
p1733
S'200146'
p1734
tp1735
a(S'200779'
p1736
S'324418'
p1737
tp1738
a(S'315177'
p1739
S'443192'
p1740
tp1741
a(S'314684'
p1742
S'443192'
p1743
tp1744
a(S'121747'
p1745
S'413183'
p1746
tp1747
a(S'120177'
p1748
S'307633'
p1749
tp1750
a(S'111280'
p1751
S'215887'
p1752
tp1753
a(S'086997'
p1754
S'331890'
p1755
tp1756
a(S'030936'
p1757
S'034572'
p1758
tp1759
a(S'314055'
p1760
S'315177'
p1761
tp1762
a(S'314055'
p1763
S'415618'
p1764
tp1765
a(S'086997'
p1766
S'120177'
p1767
tp1768
a(S'220488'
p1769
S'231037'
p1770
tp1771
a(S'164407'
p1772
S'298107'
p1773
tp1774
a(S'030936'
p1775
S'086997'
p1776
tp1777
a(S'120177'
p1778
S'200230'
p1779
tp1780
a(S'307633'
p1781
S'461330'
p1782
tp1783
a(S'200779'
p1784
S'215887'
p1785
tp1786
a(S'046399'
p1787
S'240364'
p1788
tp1789
a(S'041758'
p1790
S'051528'
p1791
tp1792
a(S'291515'
p1793
S'411000'
p1794
tp1795
a(S'228374'
p1796
S'411000'
p1797
tp1798
a(S'034572'
p1799
S'215887'
p1800
tp1801
a(S'228374'
p1802
S'234825'
p1803
tp1804
a(S'111280'
p1805
S'244522'
p1806
tp1807
a(S'030936'
p1808
S'415618'
p1809
tp1810
a(S'307633'
p1811
S'431243'
p1812
tp1813
a(S'200146'
p1814
S'231037'
p1815
tp1816
a(S'298107'
p1817
S'411000'
p1818
tp1819
a(S'215887'
p1820
S'248597'
p1821
tp1822
a(S'231037'
p1823
S'244522'
p1824
tp1825
a(S'041912'
p1826
S'427260'
p1827
tp1828
a(S'116738'
p1829
S'411000'
p1830
tp1831
a(S'121747'
p1832
S'461330'
p1833
tp1834
a(S'307633'
p1835
S'361354'
p1836
tp1837
a(S'240364'
p1838
S'244522'
p1839
tp1840
atp1841
Rp1842
.